target datalayout = "e-m:e-p270:32:32-p271:32:32-p272:64:64-i64:64-i128:128-f80:128-n8:16:32:64-S128"
target triple = "x86_64-pc-linux-gnu"

%struct._packet_info = type { ptr, ptr, i32, i32, %struct.nstime_t, %struct.nstime_t, %struct.nstime_t, i8, ptr, ptr, ptr, ptr, %struct._address, %struct._address, %struct._address, %struct._address, %struct._address, %struct._address, i32, ptr, i8, [3 x i8], %struct.anon, i32, i32, i32, i32, ptr, i8, ptr, ptr, i16, i16, i32, i32, i16, i32, i32, ptr, ptr, ptr, i8, i8, i16, i16, i16, i32, i16, i16, ptr, ptr, ptr, ptr, ptr, i32, i32 }
%struct.nstime_t = type { i64, i32 }
%struct._address = type { i32, i32, ptr, ptr }
%struct.anon = type { i8, [3 x i8] }
%struct._export_object_entry_t = type { i32, ptr, ptr, ptr, i64, ptr }
%struct._tftp_eo_t = type { ptr, i32, ptr }
%struct._export_object_list_t = type { ptr, ptr, ptr }

; Function Attrs: null_pointer_is_valid sspstrong uwtable
define internal i32 @tftp_eo_packet(ptr noundef %0, ptr noundef %1, ptr noundef %2, ptr noundef %3, i32 noundef %4) #0 {
  %6 = alloca ptr, align 8
  %7 = alloca ptr, align 8
  %8 = alloca ptr, align 8
  %9 = alloca ptr, align 8
  %10 = alloca i32, align 4
  %11 = alloca ptr, align 8
  %12 = alloca ptr, align 8
  %13 = alloca ptr, align 8
  %14 = alloca i64, align 8
  %15 = alloca i64, align 8
  %16 = alloca ptr, align 8
  %17 = alloca ptr, align 8
  store ptr %0, ptr %6, align 8
  store ptr %1, ptr %7, align 8
  store ptr %2, ptr %8, align 8
  store ptr %3, ptr %9, align 8
  store i32 %4, ptr %10, align 4
  call void @llvm.lifetime.start.p0(i64 8, ptr %11) #12
  %18 = load ptr, ptr %6, align 8
  store ptr %18, ptr %11, align 8
  call void @llvm.lifetime.start.p0(i64 8, ptr %12) #12
  %19 = load ptr, ptr %9, align 8
  store ptr %19, ptr %12, align 8
  call void @llvm.lifetime.start.p0(i64 8, ptr %13) #12
  call void @llvm.lifetime.start.p0(i64 8, ptr %14) #12
  store i64 1, ptr %14, align 8
  call void @llvm.lifetime.start.p0(i64 8, ptr %15) #12
  store i64 48, ptr %15, align 8
  call void @llvm.lifetime.start.p0(i64 8, ptr %16) #12
  %20 = load i64, ptr %15, align 8
  %21 = icmp eq i64 %20, 1
  br i1 %21, label %22, label %25

22:                                               ; preds = %5
  %23 = load i64, ptr %14, align 8
  %24 = call noalias ptr @g_malloc(i64 noundef %23) #13
  store ptr %24, ptr %16, align 8
  br label %46

25:                                               ; preds = %5
  %26 = load i64, ptr %14, align 8
  %27 = call i1 @llvm.is.constant.i64(i64 %26)
  br i1 %27, label %28, label %41

28:                                               ; preds = %25
  %29 = load i64, ptr %15, align 8
  %30 = icmp eq i64 %29, 0
  br i1 %30, label %36, label %31

31:                                               ; preds = %28
  %32 = load i64, ptr %14, align 8
  %33 = load i64, ptr %15, align 8
  %34 = udiv i64 -1, %33
  %35 = icmp ule i64 %32, %34
  br i1 %35, label %36, label %41

36:                                               ; preds = %31, %28
  %37 = load i64, ptr %14, align 8
  %38 = load i64, ptr %15, align 8
  %39 = mul i64 %37, %38
  %40 = call noalias ptr @g_malloc(i64 noundef %39) #13
  store ptr %40, ptr %16, align 8
  br label %45

41:                                               ; preds = %31, %25
  %42 = load i64, ptr %14, align 8
  %43 = load i64, ptr %15, align 8
  %44 = call noalias ptr @g_malloc_n(i64 noundef %42, i64 noundef %43) #14
  store ptr %44, ptr %16, align 8
  br label %45

45:                                               ; preds = %41, %36
  br label %46

46:                                               ; preds = %45, %22
  %47 = load ptr, ptr %16, align 8
  store ptr %47, ptr %17, align 8
  call void @llvm.lifetime.end.p0(i64 8, ptr %16) #12
  call void @llvm.lifetime.end.p0(i64 8, ptr %15) #12
  call void @llvm.lifetime.end.p0(i64 8, ptr %14) #12
  %48 = load ptr, ptr %17, align 8
  store ptr %48, ptr %13, align 8
  %49 = load ptr, ptr %7, align 8
  %50 = getelementptr inbounds nuw %struct._packet_info, ptr %49, i32 0, i32 3
  %51 = load i32, ptr %50, align 4
  %52 = load ptr, ptr %13, align 8
  %53 = getelementptr inbounds nuw %struct._export_object_entry_t, ptr %52, i32 0, i32 0
  store i32 %51, ptr %53, align 8
  %54 = load ptr, ptr %12, align 8
  %55 = getelementptr inbounds nuw %struct._tftp_eo_t, ptr %54, i32 0, i32 0
  %56 = load ptr, ptr %55, align 8
  %57 = call noalias ptr @g_path_get_basename(ptr noundef %56)
  %58 = load ptr, ptr %13, align 8
  %59 = getelementptr inbounds nuw %struct._export_object_entry_t, ptr %58, i32 0, i32 3
  store ptr %57, ptr %59, align 8
  %60 = load ptr, ptr %12, align 8
  %61 = getelementptr inbounds nuw %struct._tftp_eo_t, ptr %60, i32 0, i32 0
  %62 = load ptr, ptr %61, align 8
  call void @g_free(ptr noundef %62)
  %63 = load ptr, ptr %12, align 8
  %64 = getelementptr inbounds nuw %struct._tftp_eo_t, ptr %63, i32 0, i32 1
  %65 = load i32, ptr %64, align 8
  %66 = zext i32 %65 to i64
  %67 = load ptr, ptr %13, align 8
  %68 = getelementptr inbounds nuw %struct._export_object_entry_t, ptr %67, i32 0, i32 4
  store i64 %66, ptr %68, align 8
  %69 = load ptr, ptr %12, align 8
  %70 = getelementptr inbounds nuw %struct._tftp_eo_t, ptr %69, i32 0, i32 2
  %71 = load ptr, ptr %70, align 8
  %72 = load ptr, ptr %13, align 8
  %73 = getelementptr inbounds nuw %struct._export_object_entry_t, ptr %72, i32 0, i32 5
  store ptr %71, ptr %73, align 8
  %74 = load ptr, ptr %13, align 8
  %75 = getelementptr inbounds nuw %struct._export_object_entry_t, ptr %74, i32 0, i32 1
  store ptr null, ptr %75, align 8
  %76 = load ptr, ptr %13, align 8
  %77 = getelementptr inbounds nuw %struct._export_object_entry_t, ptr %76, i32 0, i32 2
  store ptr null, ptr %77, align 8
  %78 = load ptr, ptr %11, align 8
  %79 = getelementptr inbounds nuw %struct._export_object_list_t, ptr %78, i32 0, i32 0
  %80 = load ptr, ptr %79, align 8
  %81 = load ptr, ptr %11, align 8
  %82 = getelementptr inbounds nuw %struct._export_object_list_t, ptr %81, i32 0, i32 2
  %83 = load ptr, ptr %82, align 8
  %84 = load ptr, ptr %13, align 8
  call void %80(ptr noundef %83, ptr noundef %84)
  call void @llvm.lifetime.end.p0(i64 8, ptr %13) #12
  call void @llvm.lifetime.end.p0(i64 8, ptr %12) #12
  call void @llvm.lifetime.end.p0(i64 8, ptr %11) #12
  ret i32 1
}