; Function Attrs: null_pointer_is_valid sspstrong uwtable
define internal noundef i32 @tftp_eo_packet(ptr noundef readonly captures(none) %0, ptr noundef readonly captures(none) %1, ptr readnone captures(none) %2, ptr noundef readonly captures(none) %3, i32 %4) #0 {
  %6 = tail call noalias dereferenceable_or_null(48) ptr @g_malloc(i64 noundef 48) #9
  %7 = getelementptr inbounds nuw i8, ptr %1, i64 20
  %8 = load i32, ptr %7, align 4
  store i32 %8, ptr %6, align 8
  %9 = load ptr, ptr %3, align 8
  %10 = tail call noalias ptr @g_path_get_basename(ptr noundef %9)
  %11 = getelementptr inbounds nuw i8, ptr %6, i64 24
  store ptr %10, ptr %11, align 8
  %12 = load ptr, ptr %3, align 8
  tail call void @g_free(ptr noundef %12)
  %13 = getelementptr inbounds nuw i8, ptr %3, i64 8
  %14 = load i32, ptr %13, align 8
  %15 = zext i32 %14 to i64
  %16 = getelementptr inbounds nuw i8, ptr %6, i64 32
  store i64 %15, ptr %16, align 8
  %17 = getelementptr inbounds nuw i8, ptr %3, i64 16
  %18 = load ptr, ptr %17, align 8
  %19 = getelementptr inbounds nuw i8, ptr %6, i64 40
  store ptr %18, ptr %19, align 8
  %20 = getelementptr inbounds nuw i8, ptr %6, i64 8
  tail call void @llvm.memset.p0.i64(ptr noundef nonnull align 8 dereferenceable(16) %20, i8 0, i64 16, i1 false)
  %21 = load ptr, ptr %0, align 8
  %22 = getelementptr inbounds nuw i8, ptr %0, i64 16
  %23 = load ptr, ptr %22, align 8
  tail call void %21(ptr noundef %23, ptr noundef %6)
  ret i32 1
}